; Function Attrs: nounwind uwtable
define internal fastcc range(i32 -2147483648, 1) i32 @cbs_h266_read_byte_alignment(ptr noundef %0, ptr noundef nonnull %1) unnamed_addr #0 {
  %3 = alloca i32, align 4
  %4 = alloca i32, align 4
  call void @llvm.lifetime.start.p0(i64 4, ptr nonnull %3) #11
  %5 = call i32 @ff_cbs_read_unsigned(ptr noundef %0, ptr noundef nonnull %1, i32 noundef 1, ptr noundef nonnull @.str.1181, ptr noundef null, ptr noundef nonnull %3, i32 noundef 1, i32 noundef 1) #11
  %6 = icmp sgt i32 %5, -1
  call void @llvm.lifetime.end.p0(i64 4, ptr nonnull %3) #11
  br i1 %6, label %.preheader, label %.loopexit

.preheader:                                       ; preds = %2
  %7 = getelementptr i8, ptr %1, i64 16
  br label %8

8:                                                ; preds = %.preheader, %10
  %.val = load i32, ptr %7, align 8, !tbaa !60
  %9 = and i32 %.val, 7
  %.not = icmp eq i32 %9, 0
  br i1 %.not, label %.loopexit, label %10

10:                                               ; preds = %8
  call void @llvm.lifetime.start.p0(i64 4, ptr nonnull %4) #11
  %11 = call i32 @ff_cbs_read_unsigned(ptr noundef %0, ptr noundef nonnull %1, i32 noundef 1, ptr noundef nonnull @.str.1182, ptr noundef null, ptr noundef nonnull %4, i32 noundef 0, i32 noundef 0) #11
  %12 = icmp sgt i32 %11, -1
  call void @llvm.lifetime.end.p0(i64 4, ptr nonnull %4) #11
  br i1 %12, label %8, label %.loopexit, !llvm.loop !1547

.loopexit:                                        ; preds = %8, %10, %2
  %.118 = phi i32 [ %5, %2 ], [ 0, %8 ], [ %11, %10 ]
  ret i32 %.118
}